(lp1
F0.98099999999999998
aF1.2629999999999999
aF1.2829999999999999
aF1.2410000000000001
aF1.2410000000000001
aF1.2509999999999999
aF1.2729999999999999
aF1.2470000000000001
aF1.367
aF1.5700000000000001
aF1.609
aF1.677
aF1.681
aF1.657
aF1.6220000000000001
aF1.677
aF1.871
aF1.8500000000000001
aF1.869
aF1.8620000000000001
aF1.8959999999999999
aF2.032
aF2.3090000000000002
aF2.363
aF2.5059999999999998
aF2.609
aF2.625
aF2.6829999999999998
aF2.6829999999999998
aF2.6749999999999998
aF2.8660000000000001
aF2.7890000000000001
aF2.8879999999999999
aF2.956
aF3.1339999999999999
aF3.1739999999999999
aF3.383
aF3.403
aF3.5099999999999998
aF3.5529999999999999
aF3.5350000000000001
aF3.6869999999999998
aF3.6960000000000002
aF4.1109999999999998
aF4.2270000000000003
aF4.1040000000000001
aF4.4930000000000003
aF4.7030000000000003
aF4.9299999999999997
aF4.8579999999999997
aF4.79
aF4.8650000000000002
aF4.6799999999999997
aF5.048
aF4.7290000000000001
aF5.0279999999999996
aF5.1210000000000004
aF5.2770000000000001
aF5.4359999999999999
aF5.4550000000000001
aF5.4740000000000002
aF5.2220000000000004
aF5.7249999999999996
aF5.4829999999999997
aF5.665
aF5.7460000000000004
aF5.9089999999999998
aF5.7300000000000004
aF5.8390000000000004
aF5.7569999999999997
a.