(lp1
F0.69699999999999995
aF1.0920000000000001
aF1.242
aF1.2549999999999999
aF1.3320000000000001
aF1.3620000000000001
aF1.3560000000000001
aF1.399
aF1.498
aF1.45
aF1.5580000000000001
aF1.6950000000000001
aF1.6439999999999999
aF1.5609999999999999
aF1.633
aF1.5289999999999999
aF1.6659999999999999
aF1.5820000000000001
aF1.6279999999999999
aF1.6399999999999999
aF1.756
aF1.869
aF2.0800000000000001
aF2
aF2.0640000000000001
aF2.5289999999999999
aF2.8860000000000001
aF4.6040000000000001
aF6.0179999999999998
aF7.2750000000000004
aF6.8360000000000003
aF6.8170000000000002
aF6.5679999999999996
aF10.868
aF16.349
aF19.138999999999999
aF18.199000000000002
aF18.939
aF19.803999999999998
aF19.545000000000002
aF19.181000000000001
aF20.478000000000002
aF18.788
aF20.158000000000001
aF19.492000000000001
aF20.279
aF20.555
aF19.936
aF19.817
aF20.359000000000002
aF19.925000000000001
aF19.798999999999999
aF19.469000000000001
aF19.949000000000002
aF19.940000000000001
aF18.66
aF18.963999999999999
aF21.035
aF20.588999999999999
aF19.359999999999999
aF20.353000000000002
aF19.687999999999999
aF19.431999999999999
aF19.925999999999998
aF19.867999999999999
aF19.484999999999999
aF20.175999999999998
aF20.120999999999999
aF20.119
aF19.919
a.