(lp1
F0.71299999999999997
aF1.2450000000000001
aF1.2090000000000001
aF1.2210000000000001
aF1.2529999999999999
aF1.375
aF1.3620000000000001
aF1.2929999999999999
aF1.452
aF1.4630000000000001
aF1.607
aF1.6799999999999999
aF1.7669999999999999
aF1.7030000000000001
aF1.728
aF1.722
aF1.696
aF1.6339999999999999
aF1.651
aF1.655
aF1.6599999999999999
aF1.97
aF1.9510000000000001
aF2.121
aF2.032
aF2.2000000000000002
aF2.4990000000000001
aF3.2330000000000001
aF4.899
aF5.577
aF5.351
aF5.1710000000000003
aF5.7869999999999999
aF6.4290000000000003
aF7.7640000000000002
aF9.0990000000000002
aF10.500999999999999
aF11.125
aF11.611000000000001
aF12.291
aF12.962999999999999
aF12.611000000000001
aF12.909000000000001
aF12.936999999999999
aF13.945
aF13.917
aF14.282
aF14.462999999999999
aF14.679
aF14.743
aF14.481
aF13.728999999999999
aF14.397
aF14.565
aF15.06
aF14.606999999999999
aF13.848000000000001
aF14.167
aF14.381
aF13.946999999999999
aF14.470000000000001
aF13.791
aF14.319000000000001
aF14.167999999999999
aF14.853
aF14.284000000000001
aF14.611000000000001
aF14.542
aF15.487
aF14.782999999999999
a.